target datalayout = "e-m:e-p270:32:32-p271:32:32-p272:64:64-i64:64-i128:128-f80:128-n8:16:32:64-S128"
target triple = "x86_64-pc-linux-gnu"

%struct.GtkApi = type { i32, ptr, ptr, ptr, ptr, ptr, ptr, ptr, ptr, ptr, ptr, ptr, ptr, ptr, ptr, ptr, ptr, ptr, ptr, ptr, ptr, ptr, ptr, ptr, ptr, ptr, ptr, ptr, ptr, ptr, ptr, ptr, ptr, ptr, ptr, ptr, ptr, ptr, ptr, ptr, ptr, ptr, ptr, ptr, ptr, ptr, ptr, ptr, ptr, ptr, ptr, ptr, ptr, ptr, ptr, ptr, ptr, ptr, ptr, ptr, ptr, ptr, ptr, ptr, ptr, ptr, ptr, ptr, ptr, ptr, ptr, ptr, ptr, ptr, ptr, ptr, ptr, ptr, ptr, ptr, ptr, ptr, ptr, ptr, ptr, ptr, ptr, ptr, ptr, ptr, ptr, ptr, ptr, ptr, ptr, ptr, ptr, ptr, ptr, ptr, ptr, ptr, ptr, ptr, ptr }

@gtk = external global ptr, align 8

; Function Attrs: nounwind uwtable
define ptr @Java_com_sun_java_swing_plaf_gtk_GTKEngine_native_1get_1gtk_1setting(ptr noundef %0, ptr noundef %1, i32 noundef %2) #0 {
  %4 = alloca ptr, align 8
  %5 = alloca ptr, align 8
  %6 = alloca i32, align 4
  %7 = alloca ptr, align 8
  store ptr %0, ptr %4, align 8
  store ptr %1, ptr %5, align 8
  store i32 %2, ptr %6, align 4
  %8 = load ptr, ptr @gtk, align 8
  %9 = getelementptr inbounds %struct.GtkApi, ptr %8, i32 0, i32 31
  %10 = load ptr, ptr %9, align 8
  call void %10()
  %11 = load ptr, ptr @gtk, align 8
  %12 = getelementptr inbounds %struct.GtkApi, ptr %11, i32 0, i32 5
  %13 = load ptr, ptr %12, align 8
  %14 = load ptr, ptr %4, align 8
  %15 = load i32, ptr %6, align 4
  %16 = call ptr %13(ptr noundef %14, i32 noundef %15)
  store ptr %16, ptr %7, align 8
  %17 = load ptr, ptr @gtk, align 8
  %18 = getelementptr inbounds %struct.GtkApi, ptr %17, i32 0, i32 32
  %19 = load ptr, ptr %18, align 8
  call void %19()
  %20 = load ptr, ptr %7, align 8
  ret ptr %20
}