; Function Attrs: nounwind uwtable
define ptr @Java_com_sun_java_swing_plaf_gtk_GTKEngine_native_1get_1gtk_1setting(ptr noundef %0, ptr nocapture noundef readnone %1, i32 noundef %2) local_unnamed_addr #0 {
  %4 = load ptr, ptr @gtk, align 8
  %5 = getelementptr inbounds i8, ptr %4, i64 248
  %6 = load ptr, ptr %5, align 8
  tail call void %6() #4
  %7 = load ptr, ptr @gtk, align 8
  %8 = getelementptr inbounds i8, ptr %7, i64 40
  %9 = load ptr, ptr %8, align 8
  %10 = tail call ptr %9(ptr noundef %0, i32 noundef %2) #4
  %11 = load ptr, ptr @gtk, align 8
  %12 = getelementptr inbounds i8, ptr %11, i64 256
  %13 = load ptr, ptr %12, align 8
  tail call void %13() #4
  ret ptr %10
}